; Function Attrs: nounwind uwtable
define dso_local void @defragRadixTree(ptr noundef captures(none) %0, i32 noundef %1, ptr noundef readonly captures(address_is_null) %2, ptr noundef %3) local_unnamed_addr #0 {
  %5 = alloca %struct.raxIterator, align 8
  call void @llvm.lifetime.start.p0(i64 480, ptr nonnull %5) #10
  %6 = load ptr, ptr %0, align 8, !tbaa !115
  %7 = tail call i32 @je_get_defrag_hint(ptr noundef %6) #10
  %.not.i = icmp eq i32 %7, 0
  br i1 %.not.i, label %activeDefragAlloc.exit.thread, label %activeDefragAlloc.exit

activeDefragAlloc.exit.thread:                    ; preds = %4
  %8 = load i64, ptr getelementptr inbounds nuw (i8, ptr @server, i64 2592), align 8, !tbaa !5
  %9 = add nsw i64 %8, 1
  store i64 %9, ptr getelementptr inbounds nuw (i8, ptr @server, i64 2592), align 8, !tbaa !5
  br label %15

activeDefragAlloc.exit:                           ; preds = %4
  %10 = tail call i64 @je_malloc_usable_size(ptr noundef %6) #10
  %11 = tail call noalias ptr @zmalloc_no_tcache(i64 noundef %10) #10
  tail call void @llvm.memcpy.p0.p0.i64(ptr align 1 %11, ptr align 1 %6, i64 %10, i1 false)
  tail call void @zfree_no_tcache(ptr noundef %6) #10
  %12 = load i64, ptr getelementptr inbounds nuw (i8, ptr @server, i64 2584), align 8, !tbaa !38
  %13 = add nsw i64 %12, 1
  store i64 %13, ptr getelementptr inbounds nuw (i8, ptr @server, i64 2584), align 8, !tbaa !38
  %.not = icmp eq ptr %11, null
  br i1 %.not, label %15, label %14

14:                                               ; preds = %activeDefragAlloc.exit
  store ptr %11, ptr %0, align 8, !tbaa !115
  br label %15

15:                                               ; preds = %activeDefragAlloc.exit.thread, %14, %activeDefragAlloc.exit
  %16 = load ptr, ptr %0, align 8, !tbaa !115
  call void @raxStart(ptr noundef nonnull %5, ptr noundef %16) #10
  %17 = getelementptr inbounds nuw i8, ptr %5, i64 472
  store ptr @defragRaxNode, ptr %17, align 8, !tbaa !107
  %18 = load ptr, ptr %16, align 8, !tbaa !102
  %19 = call i32 @je_get_defrag_hint(ptr noundef %18) #10
  %.not.i.i = icmp eq i32 %19, 0
  br i1 %.not.i.i, label %activeDefragAlloc.exit.thread.i, label %activeDefragAlloc.exit.i

activeDefragAlloc.exit.thread.i:                  ; preds = %15
  %20 = load i64, ptr getelementptr inbounds nuw (i8, ptr @server, i64 2592), align 8, !tbaa !5
  %21 = add nsw i64 %20, 1
  store i64 %21, ptr getelementptr inbounds nuw (i8, ptr @server, i64 2592), align 8, !tbaa !5
  br label %defragRaxNode.exit

activeDefragAlloc.exit.i:                         ; preds = %15
  %22 = call i64 @je_malloc_usable_size(ptr noundef %18) #10
  %23 = call noalias ptr @zmalloc_no_tcache(i64 noundef %22) #10
  call void @llvm.memcpy.p0.p0.i64(ptr align 1 %23, ptr align 1 %18, i64 %22, i1 false)
  call void @zfree_no_tcache(ptr noundef %18) #10
  %24 = load i64, ptr getelementptr inbounds nuw (i8, ptr @server, i64 2584), align 8, !tbaa !38
  %25 = add nsw i64 %24, 1
  store i64 %25, ptr getelementptr inbounds nuw (i8, ptr @server, i64 2584), align 8, !tbaa !38
  %.not.i18 = icmp eq ptr %23, null
  br i1 %.not.i18, label %defragRaxNode.exit, label %26

26:                                               ; preds = %activeDefragAlloc.exit.i
  store ptr %23, ptr %16, align 8, !tbaa !102
  br label %defragRaxNode.exit

defragRaxNode.exit:                               ; preds = %activeDefragAlloc.exit.thread.i, %activeDefragAlloc.exit.i, %26
  %27 = call i32 @raxSeek(ptr noundef nonnull %5, ptr noundef nonnull @.str.12, ptr noundef null, i64 noundef 0) #10
  %28 = call i32 @raxNext(ptr noundef nonnull %5) #10
  %.not1527 = icmp eq i32 %28, 0
  br i1 %.not1527, label %._crit_edge, label %.lr.ph

.lr.ph:                                           ; preds = %defragRaxNode.exit
  %.not16 = icmp eq ptr %2, null
  %29 = icmp eq i32 %1, 0
  %30 = getelementptr inbounds nuw i8, ptr %5, i64 24
  %31 = getelementptr inbounds nuw i8, ptr %5, i64 176
  br i1 %29, label %.lr.ph.split.us, label %.lr.ph.split

.lr.ph.split.us:                                  ; preds = %.lr.ph
  br i1 %.not16, label %activeDefragAlloc.exit22.us.us, label %activeDefragAlloc.exit22.us

activeDefragAlloc.exit22.us.us:                   ; preds = %.lr.ph.split.us, %activeDefragAlloc.exit22.us.us
  %32 = call i32 @raxNext(ptr noundef nonnull %5) #10
  %.not15.us.us = icmp eq i32 %32, 0
  br i1 %.not15.us.us, label %._crit_edge, label %activeDefragAlloc.exit22.us.us, !llvm.loop !116

activeDefragAlloc.exit22.us:                      ; preds = %.lr.ph.split.us, %36
  %33 = call ptr %2(ptr noundef nonnull %5, ptr noundef %3) #10
  %.not17.us = icmp eq ptr %33, null
  br i1 %.not17.us, label %36, label %34

34:                                               ; preds = %activeDefragAlloc.exit22.us
  %35 = load ptr, ptr %31, align 8, !tbaa !111
  store ptr %33, ptr %30, align 8, !tbaa !110
  call void @raxSetData(ptr noundef %35, ptr noundef nonnull %33) #10
  br label %36

36:                                               ; preds = %34, %activeDefragAlloc.exit22.us
  %37 = call i32 @raxNext(ptr noundef nonnull %5) #10
  %.not15.us = icmp eq i32 %37, 0
  br i1 %.not15.us, label %._crit_edge, label %activeDefragAlloc.exit22.us, !llvm.loop !116

.lr.ph.split:                                     ; preds = %.lr.ph
  br i1 %.not16, label %.lr.ph.split.split.us, label %.lr.ph.split.split

.lr.ph.split.split.us:                            ; preds = %.lr.ph.split, %48
  %38 = load ptr, ptr %30, align 8, !tbaa !110
  %39 = call i32 @je_get_defrag_hint(ptr noundef %38) #10
  %.not.i20.us = icmp eq i32 %39, 0
  br i1 %.not.i20.us, label %activeDefragAlloc.exit22.thread.us, label %activeDefragAlloc.exit22.us29

activeDefragAlloc.exit22.us29:                    ; preds = %.lr.ph.split.split.us
  %40 = call i64 @je_malloc_usable_size(ptr noundef %38) #10
  %41 = call noalias ptr @zmalloc_no_tcache(i64 noundef %40) #10
  call void @llvm.memcpy.p0.p0.i64(ptr align 1 %41, ptr align 1 %38, i64 %40, i1 false)
  call void @zfree_no_tcache(ptr noundef %38) #10
  %42 = load i64, ptr getelementptr inbounds nuw (i8, ptr @server, i64 2584), align 8, !tbaa !38
  %43 = add nsw i64 %42, 1
  store i64 %43, ptr getelementptr inbounds nuw (i8, ptr @server, i64 2584), align 8, !tbaa !38
  %.not17.us31 = icmp eq ptr %41, null
  br i1 %.not17.us31, label %48, label %46

activeDefragAlloc.exit22.thread.us:               ; preds = %.lr.ph.split.split.us
  %44 = load i64, ptr getelementptr inbounds nuw (i8, ptr @server, i64 2592), align 8, !tbaa !5
  %45 = add nsw i64 %44, 1
  store i64 %45, ptr getelementptr inbounds nuw (i8, ptr @server, i64 2592), align 8, !tbaa !5
  br label %48

46:                                               ; preds = %activeDefragAlloc.exit22.us29
  %47 = load ptr, ptr %31, align 8, !tbaa !111
  store ptr %41, ptr %30, align 8, !tbaa !110
  call void @raxSetData(ptr noundef %47, ptr noundef nonnull %41) #10
  br label %48

48:                                               ; preds = %46, %activeDefragAlloc.exit22.us29, %activeDefragAlloc.exit22.thread.us
  %49 = call i32 @raxNext(ptr noundef nonnull %5) #10
  %.not15.us32 = icmp eq i32 %49, 0
  br i1 %.not15.us32, label %._crit_edge, label %.lr.ph.split.split.us, !llvm.loop !116

.lr.ph.split.split:                               ; preds = %.lr.ph.split, %61
  %50 = call ptr %2(ptr noundef nonnull %5, ptr noundef %3) #10
  %.not33 = icmp eq ptr %50, null
  br i1 %.not33, label %51, label %activeDefragAlloc.exit22.thread37

51:                                               ; preds = %.lr.ph.split.split
  %52 = load ptr, ptr %30, align 8, !tbaa !110
  %53 = call i32 @je_get_defrag_hint(ptr noundef %52) #10
  %.not.i20 = icmp eq i32 %53, 0
  br i1 %.not.i20, label %activeDefragAlloc.exit22.thread, label %activeDefragAlloc.exit22

activeDefragAlloc.exit22.thread:                  ; preds = %51
  %54 = load i64, ptr getelementptr inbounds nuw (i8, ptr @server, i64 2592), align 8, !tbaa !5
  %55 = add nsw i64 %54, 1
  store i64 %55, ptr getelementptr inbounds nuw (i8, ptr @server, i64 2592), align 8, !tbaa !5
  br label %61

activeDefragAlloc.exit22:                         ; preds = %51
  %56 = call i64 @je_malloc_usable_size(ptr noundef %52) #10
  %57 = call noalias ptr @zmalloc_no_tcache(i64 noundef %56) #10
  call void @llvm.memcpy.p0.p0.i64(ptr align 1 %57, ptr align 1 %52, i64 %56, i1 false)
  call void @zfree_no_tcache(ptr noundef %52) #10
  %58 = load i64, ptr getelementptr inbounds nuw (i8, ptr @server, i64 2584), align 8, !tbaa !38
  %59 = add nsw i64 %58, 1
  store i64 %59, ptr getelementptr inbounds nuw (i8, ptr @server, i64 2584), align 8, !tbaa !38
  %.not17 = icmp eq ptr %57, null
  br i1 %.not17, label %61, label %activeDefragAlloc.exit22.thread37

activeDefragAlloc.exit22.thread37:                ; preds = %.lr.ph.split.split, %activeDefragAlloc.exit22
  %.140 = phi ptr [ %57, %activeDefragAlloc.exit22 ], [ %50, %.lr.ph.split.split ]
  %60 = load ptr, ptr %31, align 8, !tbaa !111
  store ptr %.140, ptr %30, align 8, !tbaa !110
  call void @raxSetData(ptr noundef %60, ptr noundef nonnull %.140) #10
  br label %61

61:                                               ; preds = %activeDefragAlloc.exit22.thread, %activeDefragAlloc.exit22.thread37, %activeDefragAlloc.exit22
  %62 = call i32 @raxNext(ptr noundef nonnull %5) #10
  %.not15 = icmp eq i32 %62, 0
  br i1 %.not15, label %._crit_edge, label %.lr.ph.split.split, !llvm.loop !116

._crit_edge:                                      ; preds = %61, %48, %36, %activeDefragAlloc.exit22.us.us, %defragRaxNode.exit
  call void @raxStop(ptr noundef nonnull %5) #10
  call void @llvm.lifetime.end.p0(i64 480, ptr nonnull %5) #10
  ret void
}